; Function Attrs: nounwind uwtable
define ptr @l_Std_Time_Month_Ordinal_days(i8 noundef zeroext %0, ptr noundef %1) local_unnamed_addr #0 {
  %3 = load ptr, ptr @l_Std_Time_Month_Ordinal_february___closed__1, align 8, !tbaa !11
  %4 = ptrtoint ptr %1 to i64
  %5 = ptrtoint ptr %3 to i64
  %6 = and i64 %4, 1
  %7 = and i64 %6, %5
  %or.cond.not.i.i = icmp eq i64 %7, 0
  br i1 %or.cond.not.i.i, label %lean_int_dec_eq.exit, label %8, !prof !4

8:                                                ; preds = %2
  %9 = icmp eq ptr %1, %3
  br i1 %9, label %64, label %11

lean_int_dec_eq.exit:                             ; preds = %2
  %10 = tail call zeroext i1 @lean_int_big_eq(ptr noundef %1, ptr noundef %3) #5
  br i1 %10, label %64, label %11

11:                                               ; preds = %8, %lean_int_dec_eq.exit
  %12 = load ptr, ptr @l_Std_Time_Month_Quarter_ofMonth___closed__1, align 8, !tbaa !11
  %.not.i17 = icmp eq i64 %6, 0
  br i1 %.not.i17, label %.critedge.i, label %13, !prof !13

13:                                               ; preds = %11
  %14 = ptrtoint ptr %12 to i64
  %15 = and i64 %14, 1
  %.not7.i = icmp eq i64 %15, 0
  br i1 %.not7.i, label %.critedge.i, label %16, !prof !13

16:                                               ; preds = %13
  %17 = shl i64 %4, 31
  %18 = ashr i64 %17, 32
  %19 = shl i64 %14, 31
  %20 = ashr i64 %19, 32
  %21 = add nsw i64 %20, %18
  %22 = add nsw i64 %21, 2147483648
  %23 = icmp ult i64 %22, 4294967296
  br i1 %23, label %24, label %29, !prof !10

24:                                               ; preds = %16
  %25 = shl nsw i64 %21, 1
  %26 = and i64 %25, 8589934590
  %27 = or disjoint i64 %26, 1
  %28 = inttoptr i64 %27 to ptr
  br label %lean_int_add.exit

29:                                               ; preds = %16
  %30 = tail call ptr @lean_big_int64_to_int(i64 noundef range(i64 -4611686016279904256, 4611686018427387905) %21) #5
  br label %lean_int_add.exit

.critedge.i:                                      ; preds = %13, %11
  %31 = tail call ptr @lean_int_big_add(ptr noundef %1, ptr noundef %12) #5
  br label %lean_int_add.exit

lean_int_add.exit:                                ; preds = %24, %29, %.critedge.i
  %.0.i = phi ptr [ %31, %.critedge.i ], [ %28, %24 ], [ %30, %29 ]
  %32 = tail call ptr @l_Int_toNat(ptr noundef %.0.i) #5
  %33 = ptrtoint ptr %.0.i to i64
  %34 = and i64 %33, 1
  %.not = icmp eq i64 %34, 0
  br i1 %.not, label %35, label %lean_dec.exit14

35:                                               ; preds = %lean_int_add.exit
  %36 = load i32, ptr %.0.i, align 4, !tbaa !5
  %37 = icmp sgt i32 %36, 1
  br i1 %37, label %38, label %40, !prof !10

38:                                               ; preds = %35
  %39 = add nsw i32 %36, -1
  store i32 %39, ptr %.0.i, align 4, !tbaa !5
  br label %lean_dec.exit14

40:                                               ; preds = %35
  %.not.i = icmp eq i32 %36, 0
  br i1 %.not.i, label %lean_dec.exit14, label %41

41:                                               ; preds = %40
  tail call void @lean_dec_ref_cold(ptr noundef nonnull %.0.i) #5
  br label %lean_dec.exit14

lean_dec.exit14:                                  ; preds = %41, %40, %38, %lean_int_add.exit
  %42 = load ptr, ptr @l___private_Std_Time_Date_Unit_Month_0__Std_Time_Month_Ordinal_monthSizesNonLeap, align 8, !tbaa !11
  %43 = ptrtoint ptr %32 to i64
  %44 = lshr i64 %43, 1
  %45 = getelementptr inbounds nuw i8, ptr %42, i64 24
  %46 = getelementptr inbounds nuw [0 x ptr], ptr %45, i64 0, i64 %44
  %47 = load ptr, ptr %46, align 8, !tbaa !11
  %48 = ptrtoint ptr %47 to i64
  %49 = and i64 %48, 1
  %.not.i.i = icmp eq i64 %49, 0
  br i1 %.not.i.i, label %50, label %lean_array_fget.exit

50:                                               ; preds = %lean_dec.exit14
  %.val.i.i.i = load i32, ptr %47, align 4, !tbaa !5
  %51 = icmp sgt i32 %.val.i.i.i, 0
  br i1 %51, label %52, label %54, !prof !10

52:                                               ; preds = %50
  %53 = add nuw i32 %.val.i.i.i, 1
  store i32 %53, ptr %47, align 4, !tbaa !5
  br label %lean_array_fget.exit

54:                                               ; preds = %50
  %.not.i.i.i = icmp eq i32 %.val.i.i.i, 0
  br i1 %.not.i.i.i, label %lean_array_fget.exit, label %55

55:                                               ; preds = %54
  tail call void @lean_inc_ref_cold(ptr noundef nonnull %47) #5
  br label %lean_array_fget.exit

lean_array_fget.exit:                             ; preds = %lean_dec.exit14, %52, %54, %55
  %56 = and i64 %43, 1
  %.not18 = icmp eq i64 %56, 0
  br i1 %.not18, label %57, label %lean_dec.exit

57:                                               ; preds = %lean_array_fget.exit
  %58 = load i32, ptr %32, align 4, !tbaa !5
  %59 = icmp sgt i32 %58, 1
  br i1 %59, label %60, label %62, !prof !10

60:                                               ; preds = %57
  %61 = add nsw i32 %58, -1
  store i32 %61, ptr %32, align 4, !tbaa !5
  br label %lean_dec.exit

62:                                               ; preds = %57
  %.not.i15 = icmp eq i32 %58, 0
  br i1 %.not.i15, label %lean_dec.exit, label %63

63:                                               ; preds = %62
  tail call void @lean_dec_ref_cold(ptr noundef nonnull %32) #5
  br label %lean_dec.exit

64:                                               ; preds = %8, %lean_int_dec_eq.exit
  %65 = icmp eq i8 %0, 0
  br i1 %65, label %66, label %68

66:                                               ; preds = %64
  %67 = load ptr, ptr @l___private_Std_Time_Date_Unit_Month_0__Std_Time_Month_Ordinal_monthSizesNonLeap___closed__15, align 8, !tbaa !11
  br label %lean_dec.exit

68:                                               ; preds = %64
  %69 = load ptr, ptr @l_Std_Time_Month_Ordinal_days___closed__6, align 8, !tbaa !11
  br label %lean_dec.exit

lean_dec.exit:                                    ; preds = %lean_array_fget.exit, %60, %62, %63, %68, %66
  %.0 = phi ptr [ %67, %66 ], [ %69, %68 ], [ %47, %63 ], [ %47, %62 ], [ %47, %60 ], [ %47, %lean_array_fget.exit ]
  ret ptr %.0
}